target datalayout = "e-m:e-p270:32:32-p271:32:32-p272:64:64-i64:64-i128:128-f80:128-n8:16:32:64-S128"
target triple = "x86_64-pc-linux-gnu"

%struct.PyMutex = type { i8 }
%struct._PyRecursiveMutex = type { %struct.PyMutex, i64, i64 }

; Function Attrs: inlinehint nounwind uwtable
define internal i64 @_Py_atomic_load_ullong_relaxed(ptr noundef %0) #2 {
  %2 = alloca ptr, align 8
  %3 = alloca i64, align 8
  store ptr %0, ptr %2, align 8, !tbaa !40
  %4 = load ptr, ptr %2, align 8, !tbaa !40
  %5 = load atomic i64, ptr %4 monotonic, align 8
  store i64 %5, ptr %3, align 8
  %6 = load i64, ptr %3, align 8, !tbaa !35
  ret i64 %6
}

; Function Attrs: inlinehint nounwind uwtable
define internal void @_Py_atomic_store_ullong_relaxed(ptr noundef %0, i64 noundef %1) #2 {
  %3 = alloca ptr, align 8
  %4 = alloca i64, align 8
  %5 = alloca i64, align 8
  store ptr %0, ptr %3, align 8, !tbaa !40
  store i64 %1, ptr %4, align 8, !tbaa !35
  %6 = load ptr, ptr %3, align 8, !tbaa !40
  %7 = load i64, ptr %4, align 8, !tbaa !35
  store i64 %7, ptr %5, align 8, !tbaa !35
  %8 = load i64, ptr %5, align 8
  store atomic i64 %8, ptr %6 monotonic, align 8
  ret void
}

; Function Attrs: nounwind uwtable
define internal i32 @recursive_mutex_is_owned_by(ptr noundef %0, i64 noundef %1) #0 {
  %3 = alloca ptr, align 8
  %4 = alloca i64, align 8
  store ptr %0, ptr %3, align 8, !tbaa !25
  store i64 %1, ptr %4, align 8, !tbaa !35
  %5 = load ptr, ptr %3, align 8, !tbaa !25
  %6 = getelementptr inbounds nuw %struct._PyRecursiveMutex, ptr %5, i32 0, i32 1
  %7 = call i64 @_Py_atomic_load_ullong_relaxed(ptr noundef %6)
  %8 = load i64, ptr %4, align 8, !tbaa !35
  %9 = icmp eq i64 %7, %8
  %10 = zext i1 %9 to i32
  ret i32 %10
}

; Function Attrs: nounwind uwtable
define hidden i32 @_PyRecursiveMutex_LockTimed(ptr noundef %0, i64 noundef %1, i32 noundef %2) #0 {
  %4 = alloca i32, align 4
  %5 = alloca ptr, align 8
  %6 = alloca i64, align 8
  %7 = alloca i32, align 4
  %8 = alloca i64, align 8
  %9 = alloca i32, align 4
  %10 = alloca i32, align 4
  store ptr %0, ptr %5, align 8, !tbaa !25
  store i64 %1, ptr %6, align 8, !tbaa !9
  store i32 %2, ptr %7, align 4, !tbaa !11
  call void @llvm.lifetime.start.p0(i64 8, ptr %8) #7
  %11 = call i64 @PyThread_get_thread_ident_ex()
  store i64 %11, ptr %8, align 8, !tbaa !35
  %12 = load ptr, ptr %5, align 8, !tbaa !25
  %13 = load i64, ptr %8, align 8, !tbaa !35
  %14 = call i32 @recursive_mutex_is_owned_by(ptr noundef %12, i64 noundef %13)
  %15 = icmp ne i32 %14, 0
  br i1 %15, label %16, label %21

16:                                               ; preds = %3
  %17 = load ptr, ptr %5, align 8, !tbaa !25
  %18 = getelementptr inbounds nuw %struct._PyRecursiveMutex, ptr %17, i32 0, i32 2
  %19 = load i64, ptr %18, align 8, !tbaa !37
  %20 = add i64 %19, 1
  store i64 %20, ptr %18, align 8, !tbaa !37
  store i32 1, ptr %4, align 4
  store i32 1, ptr %9, align 4
  br label %35

21:                                               ; preds = %3
  call void @llvm.lifetime.start.p0(i64 4, ptr %10) #7
  %22 = load ptr, ptr %5, align 8, !tbaa !25
  %23 = getelementptr inbounds nuw %struct._PyRecursiveMutex, ptr %22, i32 0, i32 0
  %24 = load i64, ptr %6, align 8, !tbaa !9
  %25 = load i32, ptr %7, align 4, !tbaa !11
  %26 = call i32 @_PyMutex_LockTimed(ptr noundef %23, i64 noundef %24, i32 noundef %25)
  store i32 %26, ptr %10, align 4, !tbaa !11
  %27 = load i32, ptr %10, align 4, !tbaa !11
  %28 = icmp eq i32 %27, 1
  br i1 %28, label %29, label %33

29:                                               ; preds = %21
  %30 = load ptr, ptr %5, align 8, !tbaa !25
  %31 = getelementptr inbounds nuw %struct._PyRecursiveMutex, ptr %30, i32 0, i32 1
  %32 = load i64, ptr %8, align 8, !tbaa !35
  call void @_Py_atomic_store_ullong_relaxed(ptr noundef %31, i64 noundef %32)
  br label %33

33:                                               ; preds = %29, %21
  %34 = load i32, ptr %10, align 4, !tbaa !11
  store i32 %34, ptr %4, align 4
  store i32 1, ptr %9, align 4
  call void @llvm.lifetime.end.p0(i64 4, ptr %10) #7
  br label %35

35:                                               ; preds = %33, %16
  call void @llvm.lifetime.end.p0(i64 8, ptr %8) #7
  %36 = load i32, ptr %4, align 4
  ret i32 %36
}