; Function Attrs: nounwind uwtable
define hidden range(i32 0, 3) i32 @_PyRecursiveMutex_LockTimed(ptr noundef %0, i64 noundef %1, i32 noundef %2) local_unnamed_addr #0 {
  %4 = tail call i64 @PyThread_get_thread_ident_ex() #8
  %5 = getelementptr inbounds nuw i8, ptr %0, i64 8
  %6 = load atomic i64, ptr %5 monotonic, align 8
  %.not = icmp eq i64 %6, %4
  br i1 %.not, label %7, label %11

7:                                                ; preds = %3
  %8 = getelementptr inbounds nuw i8, ptr %0, i64 16
  %9 = load i64, ptr %8, align 8, !tbaa !20
  %10 = add i64 %9, 1
  store i64 %10, ptr %8, align 8, !tbaa !20
  br label %15

11:                                               ; preds = %3
  %12 = tail call i32 @_PyMutex_LockTimed(ptr noundef nonnull %0, i64 noundef %1, i32 noundef %2)
  %13 = icmp eq i32 %12, 1
  br i1 %13, label %14, label %15

14:                                               ; preds = %11
  store atomic i64 %4, ptr %5 monotonic, align 8
  br label %15

15:                                               ; preds = %11, %14, %7
  %.0 = phi i32 [ 1, %7 ], [ 1, %14 ], [ %12, %11 ]
  ret i32 %.0
}